target datalayout = "e-m:e-p270:32:32-p271:32:32-p272:64:64-i64:64-i128:128-f80:128-n8:16:32:64-S128"
target triple = "x86_64-pc-linux-gnu"

%struct.aiString = type { i32, [1024 x i8] }
%struct.aiTexture = type <{ i32, i32, [9 x i8], [7 x i8], ptr, %struct.aiString, [4 x i8] }>

@.str.84 = private unnamed_addr constant [29 x i8] c"aiTexture::pcData is nullptr\00", align 1
@.str.85 = private unnamed_addr constant [75 x i8] c"aiTexture::mWidth is zero (aiTexture::mHeight is %i, uncompressed texture)\00", align 1
@.str.86 = private unnamed_addr constant [47 x i8] c"aiTexture::mWidth is zero (compressed texture)\00", align 1
@.str.87 = private unnamed_addr constant [49 x i8] c"aiTexture::achFormatHint must be zero-terminated\00", align 1
@.str.88 = private unnamed_addr constant [98 x i8] c"aiTexture::achFormatHint should contain a file extension without a leading dot (format hint: %s).\00", align 1
@.str.89 = private unnamed_addr constant [56 x i8] c"aiTexture::achFormatHint contains non-lowercase letters\00", align 1

; Function Attrs: mustprogress uwtable
define hidden void @_ZN6Assimp17ValidateDSProcess8ValidateEPK9aiTexture(ptr noundef nonnull align 8 dereferenceable(32) %0, ptr noundef %1) #5 align 2 {
  %3 = alloca ptr, align 8
  %4 = alloca ptr, align 8
  %5 = alloca ptr, align 8
  store ptr %0, ptr %3, align 8
  store ptr %1, ptr %4, align 8
  %6 = load ptr, ptr %3, align 8
  %7 = load ptr, ptr %4, align 8
  %8 = getelementptr inbounds nuw %struct.aiTexture, ptr %7, i32 0, i32 4
  %9 = load ptr, ptr %8, align 8
  %10 = icmp eq ptr null, %9
  br i1 %10, label %11, label %12

11:                                               ; preds = %2
  call void (ptr, ptr, ...) @_ZN6Assimp17ValidateDSProcess11ReportErrorEPKcz(ptr noundef nonnull align 8 dereferenceable(32) %6, ptr noundef @.str.84) #20
  unreachable

12:                                               ; preds = %2
  %13 = load ptr, ptr %4, align 8
  %14 = getelementptr inbounds nuw %struct.aiTexture, ptr %13, i32 0, i32 1
  %15 = load i32, ptr %14, align 4
  %16 = icmp ne i32 %15, 0
  br i1 %16, label %17, label %27

17:                                               ; preds = %12
  %18 = load ptr, ptr %4, align 8
  %19 = getelementptr inbounds nuw %struct.aiTexture, ptr %18, i32 0, i32 0
  %20 = load i32, ptr %19, align 8
  %21 = icmp ne i32 %20, 0
  br i1 %21, label %26, label %22

22:                                               ; preds = %17
  %23 = load ptr, ptr %4, align 8
  %24 = getelementptr inbounds nuw %struct.aiTexture, ptr %23, i32 0, i32 1
  %25 = load i32, ptr %24, align 4
  call void (ptr, ptr, ...) @_ZN6Assimp17ValidateDSProcess11ReportErrorEPKcz(ptr noundef nonnull align 8 dereferenceable(32) %6, ptr noundef @.str.85, i32 noundef %25) #20
  unreachable

26:                                               ; preds = %17
  br label %54

27:                                               ; preds = %12
  %28 = load ptr, ptr %4, align 8
  %29 = getelementptr inbounds nuw %struct.aiTexture, ptr %28, i32 0, i32 0
  %30 = load i32, ptr %29, align 8
  %31 = icmp ne i32 %30, 0
  br i1 %31, label %33, label %32

32:                                               ; preds = %27
  call void (ptr, ptr, ...) @_ZN6Assimp17ValidateDSProcess11ReportErrorEPKcz(ptr noundef nonnull align 8 dereferenceable(32) %6, ptr noundef @.str.86) #20
  unreachable

33:                                               ; preds = %27
  %34 = load ptr, ptr %4, align 8
  %35 = getelementptr inbounds nuw %struct.aiTexture, ptr %34, i32 0, i32 2
  %36 = getelementptr inbounds [9 x i8], ptr %35, i64 0, i64 8
  %37 = load i8, ptr %36, align 8
  %38 = sext i8 %37 to i32
  %39 = icmp ne i32 0, %38
  br i1 %39, label %40, label %41

40:                                               ; preds = %33
  call void (ptr, ptr, ...) @_ZN6Assimp17ValidateDSProcess13ReportWarningEPKcz(ptr noundef nonnull align 8 dereferenceable(32) %6, ptr noundef @.str.87)
  br label %53

41:                                               ; preds = %33
  %42 = load ptr, ptr %4, align 8
  %43 = getelementptr inbounds nuw %struct.aiTexture, ptr %42, i32 0, i32 2
  %44 = getelementptr inbounds [9 x i8], ptr %43, i64 0, i64 0
  %45 = load i8, ptr %44, align 8
  %46 = sext i8 %45 to i32
  %47 = icmp eq i32 46, %46
  br i1 %47, label %48, label %52

48:                                               ; preds = %41
  %49 = load ptr, ptr %4, align 8
  %50 = getelementptr inbounds nuw %struct.aiTexture, ptr %49, i32 0, i32 2
  %51 = getelementptr inbounds [9 x i8], ptr %50, i64 0, i64 0
  call void (ptr, ptr, ...) @_ZN6Assimp17ValidateDSProcess13ReportWarningEPKcz(ptr noundef nonnull align 8 dereferenceable(32) %6, ptr noundef @.str.88, ptr noundef %51)
  br label %52

52:                                               ; preds = %48, %41
  br label %53

53:                                               ; preds = %52, %40
  br label %54

54:                                               ; preds = %53, %26
  call void @llvm.lifetime.start.p0(i64 8, ptr %5) #19
  %55 = load ptr, ptr %4, align 8
  %56 = getelementptr inbounds nuw %struct.aiTexture, ptr %55, i32 0, i32 2
  %57 = getelementptr inbounds [9 x i8], ptr %56, i64 0, i64 0
  store ptr %57, ptr %5, align 8
  %58 = load ptr, ptr %5, align 8
  %59 = getelementptr inbounds i8, ptr %58, i64 0
  %60 = load i8, ptr %59, align 1
  %61 = sext i8 %60 to i32
  %62 = icmp sge i32 %61, 65
  br i1 %62, label %63, label %69

63:                                               ; preds = %54
  %64 = load ptr, ptr %5, align 8
  %65 = getelementptr inbounds i8, ptr %64, i64 0
  %66 = load i8, ptr %65, align 1
  %67 = sext i8 %66 to i32
  %68 = icmp sle i32 %67, 90
  br i1 %68, label %105, label %69

69:                                               ; preds = %63, %54
  %70 = load ptr, ptr %5, align 8
  %71 = getelementptr inbounds i8, ptr %70, i64 1
  %72 = load i8, ptr %71, align 1
  %73 = sext i8 %72 to i32
  %74 = icmp sge i32 %73, 65
  br i1 %74, label %75, label %81

75:                                               ; preds = %69
  %76 = load ptr, ptr %5, align 8
  %77 = getelementptr inbounds i8, ptr %76, i64 1
  %78 = load i8, ptr %77, align 1
  %79 = sext i8 %78 to i32
  %80 = icmp sle i32 %79, 90
  br i1 %80, label %105, label %81

81:                                               ; preds = %75, %69
  %82 = load ptr, ptr %5, align 8
  %83 = getelementptr inbounds i8, ptr %82, i64 2
  %84 = load i8, ptr %83, align 1
  %85 = sext i8 %84 to i32
  %86 = icmp sge i32 %85, 65
  br i1 %86, label %87, label %93

87:                                               ; preds = %81
  %88 = load ptr, ptr %5, align 8
  %89 = getelementptr inbounds i8, ptr %88, i64 2
  %90 = load i8, ptr %89, align 1
  %91 = sext i8 %90 to i32
  %92 = icmp sle i32 %91, 90
  br i1 %92, label %105, label %93

93:                                               ; preds = %87, %81
  %94 = load ptr, ptr %5, align 8
  %95 = getelementptr inbounds i8, ptr %94, i64 3
  %96 = load i8, ptr %95, align 1
  %97 = sext i8 %96 to i32
  %98 = icmp sge i32 %97, 65
  br i1 %98, label %99, label %106

99:                                               ; preds = %93
  %100 = load ptr, ptr %5, align 8
  %101 = getelementptr inbounds i8, ptr %100, i64 3
  %102 = load i8, ptr %101, align 1
  %103 = sext i8 %102 to i32
  %104 = icmp sle i32 %103, 90
  br i1 %104, label %105, label %106

105:                                              ; preds = %99, %87, %75, %63
  call void (ptr, ptr, ...) @_ZN6Assimp17ValidateDSProcess11ReportErrorEPKcz(ptr noundef nonnull align 8 dereferenceable(32) %6, ptr noundef @.str.89) #20
  unreachable

106:                                              ; preds = %99, %93
  call void @llvm.lifetime.end.p0(i64 8, ptr %5) #19
  ret void
}