; Function Attrs: mustprogress uwtable
define hidden void @_ZN6Assimp17ValidateDSProcess8ValidateEPK9aiTexture(ptr nonnull readnone align 8 captures(none) %0, ptr noundef %1) local_unnamed_addr #7 align 2 {
  %3 = getelementptr inbounds nuw i8, ptr %1, i64 24
  %4 = load ptr, ptr %3, align 8
  %5 = icmp eq ptr %4, null
  br i1 %5, label %6, label %7

6:                                                ; preds = %2
  tail call void (ptr, ptr, ...) @_ZN6Assimp17ValidateDSProcess11ReportErrorEPKcz(ptr nonnull align 8 poison, ptr noundef nonnull @.str.84) #24
  unreachable

7:                                                ; preds = %2
  %8 = getelementptr inbounds nuw i8, ptr %1, i64 4
  %9 = load i32, ptr %8, align 4
  %.not = icmp eq i32 %9, 0
  %10 = load i32, ptr %1, align 8
  %.not22 = icmp eq i32 %10, 0
  br i1 %.not, label %13, label %11

11:                                               ; preds = %7
  br i1 %.not22, label %12, label %24

12:                                               ; preds = %11
  tail call void (ptr, ptr, ...) @_ZN6Assimp17ValidateDSProcess11ReportErrorEPKcz(ptr nonnull align 8 poison, ptr noundef nonnull @.str.85, i32 noundef %9) #24
  unreachable

13:                                               ; preds = %7
  br i1 %.not22, label %14, label %15

14:                                               ; preds = %13
  tail call void (ptr, ptr, ...) @_ZN6Assimp17ValidateDSProcess11ReportErrorEPKcz(ptr nonnull align 8 poison, ptr noundef nonnull @.str.86) #24
  unreachable

15:                                               ; preds = %13
  %16 = getelementptr inbounds nuw i8, ptr %1, i64 8
  %17 = getelementptr inbounds nuw i8, ptr %1, i64 16
  %18 = load i8, ptr %17, align 8
  %.not23 = icmp eq i8 %18, 0
  br i1 %.not23, label %20, label %19

19:                                               ; preds = %15
  tail call void (ptr, ptr, ...) @_ZN6Assimp17ValidateDSProcess13ReportWarningEPKcz(ptr nonnull align 8 poison, ptr noundef nonnull @.str.87)
  br label %24

20:                                               ; preds = %15
  %21 = load i8, ptr %16, align 8
  %22 = icmp eq i8 %21, 46
  br i1 %22, label %23, label %24

23:                                               ; preds = %20
  tail call void (ptr, ptr, ...) @_ZN6Assimp17ValidateDSProcess13ReportWarningEPKcz(ptr nonnull align 8 poison, ptr noundef nonnull @.str.88, ptr noundef nonnull %16)
  br label %24

24:                                               ; preds = %19, %23, %20, %11
  %25 = getelementptr inbounds nuw i8, ptr %1, i64 8
  %26 = load i8, ptr %25, align 1
  %27 = add i8 %26, -65
  %or.cond = icmp ult i8 %27, 26
  br i1 %or.cond, label %40, label %28

28:                                               ; preds = %24
  %29 = getelementptr inbounds nuw i8, ptr %1, i64 9
  %30 = load i8, ptr %29, align 1
  %31 = add i8 %30, -65
  %or.cond25 = icmp ult i8 %31, 26
  br i1 %or.cond25, label %40, label %32

32:                                               ; preds = %28
  %33 = getelementptr inbounds nuw i8, ptr %1, i64 10
  %34 = load i8, ptr %33, align 1
  %35 = add i8 %34, -65
  %or.cond26 = icmp ult i8 %35, 26
  br i1 %or.cond26, label %40, label %36

36:                                               ; preds = %32
  %37 = getelementptr inbounds nuw i8, ptr %1, i64 11
  %38 = load i8, ptr %37, align 1
  %39 = add i8 %38, -65
  %or.cond27 = icmp ult i8 %39, 26
  br i1 %or.cond27, label %40, label %41

40:                                               ; preds = %36, %32, %28, %24
  tail call void (ptr, ptr, ...) @_ZN6Assimp17ValidateDSProcess11ReportErrorEPKcz(ptr nonnull align 8 poison, ptr noundef nonnull @.str.89) #24
  unreachable

41:                                               ; preds = %36
  ret void
}